target datalayout = "e-m:e-p270:32:32-p271:32:32-p272:64:64-i64:64-i128:128-f80:128-n8:16:32:64-S128"
target triple = "x86_64-pc-linux-gnu"

%"class.cv::tinyxml2::StrPair" = type { i32, ptr, ptr }
%"class.cv::tinyxml2::XMLNode" = type { ptr, ptr, ptr, %"class.cv::tinyxml2::StrPair", ptr, ptr, ptr, ptr, ptr }

; Function Attrs: mustprogress nounwind uwtable
define hidden void @_ZN2cv8tinyxml27XMLNode6UnlinkEPS1_(ptr noundef nonnull align 8 dereferenceable(88) %0, ptr noundef %1) #0 align 2 {
  %3 = alloca ptr, align 8
  %4 = alloca ptr, align 8
  store ptr %0, ptr %3, align 8, !tbaa !55
  store ptr %1, ptr %4, align 8, !tbaa !55
  %5 = load ptr, ptr %3, align 8
  %6 = load ptr, ptr %4, align 8, !tbaa !55
  %7 = getelementptr inbounds nuw %"class.cv::tinyxml2::XMLNode", ptr %5, i32 0, i32 4
  %8 = load ptr, ptr %7, align 8, !tbaa !113
  %9 = icmp eq ptr %6, %8
  br i1 %9, label %10, label %16

10:                                               ; preds = %2
  %11 = getelementptr inbounds nuw %"class.cv::tinyxml2::XMLNode", ptr %5, i32 0, i32 4
  %12 = load ptr, ptr %11, align 8, !tbaa !113
  %13 = getelementptr inbounds nuw %"class.cv::tinyxml2::XMLNode", ptr %12, i32 0, i32 7
  %14 = load ptr, ptr %13, align 8, !tbaa !114
  %15 = getelementptr inbounds nuw %"class.cv::tinyxml2::XMLNode", ptr %5, i32 0, i32 4
  store ptr %14, ptr %15, align 8, !tbaa !113
  br label %16

16:                                               ; preds = %10, %2
  %17 = load ptr, ptr %4, align 8, !tbaa !55
  %18 = getelementptr inbounds nuw %"class.cv::tinyxml2::XMLNode", ptr %5, i32 0, i32 5
  %19 = load ptr, ptr %18, align 8, !tbaa !117
  %20 = icmp eq ptr %17, %19
  br i1 %20, label %21, label %27

21:                                               ; preds = %16
  %22 = getelementptr inbounds nuw %"class.cv::tinyxml2::XMLNode", ptr %5, i32 0, i32 5
  %23 = load ptr, ptr %22, align 8, !tbaa !117
  %24 = getelementptr inbounds nuw %"class.cv::tinyxml2::XMLNode", ptr %23, i32 0, i32 6
  %25 = load ptr, ptr %24, align 8, !tbaa !118
  %26 = getelementptr inbounds nuw %"class.cv::tinyxml2::XMLNode", ptr %5, i32 0, i32 5
  store ptr %25, ptr %26, align 8, !tbaa !117
  br label %27

27:                                               ; preds = %21, %16
  %28 = load ptr, ptr %4, align 8, !tbaa !55
  %29 = getelementptr inbounds nuw %"class.cv::tinyxml2::XMLNode", ptr %28, i32 0, i32 6
  %30 = load ptr, ptr %29, align 8, !tbaa !118
  %31 = icmp ne ptr %30, null
  br i1 %31, label %32, label %40

32:                                               ; preds = %27
  %33 = load ptr, ptr %4, align 8, !tbaa !55
  %34 = getelementptr inbounds nuw %"class.cv::tinyxml2::XMLNode", ptr %33, i32 0, i32 7
  %35 = load ptr, ptr %34, align 8, !tbaa !114
  %36 = load ptr, ptr %4, align 8, !tbaa !55
  %37 = getelementptr inbounds nuw %"class.cv::tinyxml2::XMLNode", ptr %36, i32 0, i32 6
  %38 = load ptr, ptr %37, align 8, !tbaa !118
  %39 = getelementptr inbounds nuw %"class.cv::tinyxml2::XMLNode", ptr %38, i32 0, i32 7
  store ptr %35, ptr %39, align 8, !tbaa !114
  br label %40

40:                                               ; preds = %32, %27
  %41 = load ptr, ptr %4, align 8, !tbaa !55
  %42 = getelementptr inbounds nuw %"class.cv::tinyxml2::XMLNode", ptr %41, i32 0, i32 7
  %43 = load ptr, ptr %42, align 8, !tbaa !114
  %44 = icmp ne ptr %43, null
  br i1 %44, label %45, label %53

45:                                               ; preds = %40
  %46 = load ptr, ptr %4, align 8, !tbaa !55
  %47 = getelementptr inbounds nuw %"class.cv::tinyxml2::XMLNode", ptr %46, i32 0, i32 6
  %48 = load ptr, ptr %47, align 8, !tbaa !118
  %49 = load ptr, ptr %4, align 8, !tbaa !55
  %50 = getelementptr inbounds nuw %"class.cv::tinyxml2::XMLNode", ptr %49, i32 0, i32 7
  %51 = load ptr, ptr %50, align 8, !tbaa !114
  %52 = getelementptr inbounds nuw %"class.cv::tinyxml2::XMLNode", ptr %51, i32 0, i32 6
  store ptr %48, ptr %52, align 8, !tbaa !118
  br label %53

53:                                               ; preds = %45, %40
  %54 = load ptr, ptr %4, align 8, !tbaa !55
  %55 = getelementptr inbounds nuw %"class.cv::tinyxml2::XMLNode", ptr %54, i32 0, i32 2
  store ptr null, ptr %55, align 8, !tbaa !116
  ret void
}

; Function Attrs: mustprogress uwtable
define hidden noundef ptr @_ZN2cv8tinyxml27XMLNode14InsertEndChildEPS1_(ptr noundef nonnull align 8 dereferenceable(88) %0, ptr noundef %1) #3 align 2 {
  %3 = alloca ptr, align 8
  %4 = alloca ptr, align 8
  %5 = alloca ptr, align 8
  store ptr %0, ptr %4, align 8, !tbaa !55
  store ptr %1, ptr %5, align 8, !tbaa !55
  %6 = load ptr, ptr %4, align 8
  %7 = load ptr, ptr %5, align 8, !tbaa !55
  %8 = getelementptr inbounds nuw %"class.cv::tinyxml2::XMLNode", ptr %7, i32 0, i32 1
  %9 = load ptr, ptr %8, align 8, !tbaa !115
  %10 = getelementptr inbounds nuw %"class.cv::tinyxml2::XMLNode", ptr %6, i32 0, i32 1
  %11 = load ptr, ptr %10, align 8, !tbaa !115
  %12 = icmp ne ptr %9, %11
  br i1 %12, label %13, label %14

13:                                               ; preds = %2
  store ptr null, ptr %3, align 8
  br label %60

14:                                               ; preds = %2
  %15 = load ptr, ptr %5, align 8, !tbaa !55
  %16 = getelementptr inbounds nuw %"class.cv::tinyxml2::XMLNode", ptr %15, i32 0, i32 2
  %17 = load ptr, ptr %16, align 8, !tbaa !116
  %18 = icmp ne ptr %17, null
  br i1 %18, label %19, label %24

19:                                               ; preds = %14
  %20 = load ptr, ptr %5, align 8, !tbaa !55
  %21 = getelementptr inbounds nuw %"class.cv::tinyxml2::XMLNode", ptr %20, i32 0, i32 2
  %22 = load ptr, ptr %21, align 8, !tbaa !116
  %23 = load ptr, ptr %5, align 8, !tbaa !55
  call void @_ZN2cv8tinyxml27XMLNode6UnlinkEPS1_(ptr noundef nonnull align 8 dereferenceable(88) %22, ptr noundef %23)
  br label %31

24:                                               ; preds = %14
  %25 = load ptr, ptr %5, align 8, !tbaa !55
  %26 = getelementptr inbounds nuw %"class.cv::tinyxml2::XMLNode", ptr %25, i32 0, i32 8
  %27 = load ptr, ptr %26, align 8, !tbaa !57
  %28 = load ptr, ptr %27, align 8, !tbaa !92
  %29 = getelementptr inbounds ptr, ptr %28, i64 5
  %30 = load ptr, ptr %29, align 8
  call void %30(ptr noundef nonnull align 8 dereferenceable(8) %27)
  br label %31

31:                                               ; preds = %24, %19
  %32 = getelementptr inbounds nuw %"class.cv::tinyxml2::XMLNode", ptr %6, i32 0, i32 5
  %33 = load ptr, ptr %32, align 8, !tbaa !117
  %34 = icmp ne ptr %33, null
  br i1 %34, label %35, label %48

35:                                               ; preds = %31
  %36 = load ptr, ptr %5, align 8, !tbaa !55
  %37 = getelementptr inbounds nuw %"class.cv::tinyxml2::XMLNode", ptr %6, i32 0, i32 5
  %38 = load ptr, ptr %37, align 8, !tbaa !117
  %39 = getelementptr inbounds nuw %"class.cv::tinyxml2::XMLNode", ptr %38, i32 0, i32 7
  store ptr %36, ptr %39, align 8, !tbaa !114
  %40 = getelementptr inbounds nuw %"class.cv::tinyxml2::XMLNode", ptr %6, i32 0, i32 5
  %41 = load ptr, ptr %40, align 8, !tbaa !117
  %42 = load ptr, ptr %5, align 8, !tbaa !55
  %43 = getelementptr inbounds nuw %"class.cv::tinyxml2::XMLNode", ptr %42, i32 0, i32 6
  store ptr %41, ptr %43, align 8, !tbaa !118
  %44 = load ptr, ptr %5, align 8, !tbaa !55
  %45 = getelementptr inbounds nuw %"class.cv::tinyxml2::XMLNode", ptr %6, i32 0, i32 5
  store ptr %44, ptr %45, align 8, !tbaa !117
  %46 = load ptr, ptr %5, align 8, !tbaa !55
  %47 = getelementptr inbounds nuw %"class.cv::tinyxml2::XMLNode", ptr %46, i32 0, i32 7
  store ptr null, ptr %47, align 8, !tbaa !114
  br label %56

48:                                               ; preds = %31
  %49 = load ptr, ptr %5, align 8, !tbaa !55
  %50 = getelementptr inbounds nuw %"class.cv::tinyxml2::XMLNode", ptr %6, i32 0, i32 5
  store ptr %49, ptr %50, align 8, !tbaa !117
  %51 = getelementptr inbounds nuw %"class.cv::tinyxml2::XMLNode", ptr %6, i32 0, i32 4
  store ptr %49, ptr %51, align 8, !tbaa !113
  %52 = load ptr, ptr %5, align 8, !tbaa !55
  %53 = getelementptr inbounds nuw %"class.cv::tinyxml2::XMLNode", ptr %52, i32 0, i32 6
  store ptr null, ptr %53, align 8, !tbaa !118
  %54 = load ptr, ptr %5, align 8, !tbaa !55
  %55 = getelementptr inbounds nuw %"class.cv::tinyxml2::XMLNode", ptr %54, i32 0, i32 7
  store ptr null, ptr %55, align 8, !tbaa !114
  br label %56

56:                                               ; preds = %48, %35
  %57 = load ptr, ptr %5, align 8, !tbaa !55
  %58 = getelementptr inbounds nuw %"class.cv::tinyxml2::XMLNode", ptr %57, i32 0, i32 2
  store ptr %6, ptr %58, align 8, !tbaa !116
  %59 = load ptr, ptr %5, align 8, !tbaa !55
  store ptr %59, ptr %3, align 8
  br label %60

60:                                               ; preds = %56, %13
  %61 = load ptr, ptr %3, align 8
  ret ptr %61
}