; Function Attrs: mustprogress uwtable
define hidden noundef ptr @_ZN2cv8tinyxml27XMLNode14InsertEndChildEPS1_(ptr noundef nonnull align 8 dereferenceable(88) %0, ptr noundef %1) local_unnamed_addr #4 align 2 {
  %3 = getelementptr inbounds nuw i8, ptr %1, i64 8
  %4 = load ptr, ptr %3, align 8, !tbaa !33
  %5 = getelementptr inbounds nuw i8, ptr %0, i64 8
  %6 = load ptr, ptr %5, align 8, !tbaa !33
  %.not = icmp eq ptr %4, %6
  br i1 %.not, label %7, label %46

7:                                                ; preds = %2
  %8 = getelementptr inbounds nuw i8, ptr %1, i64 16
  %9 = load ptr, ptr %8, align 8, !tbaa !38
  %.not18 = icmp eq ptr %9, null
  br i1 %.not18, label %31, label %10

10:                                               ; preds = %7
  %11 = getelementptr inbounds nuw i8, ptr %9, i64 48
  %12 = load ptr, ptr %11, align 8, !tbaa !97
  %13 = icmp eq ptr %1, %12
  br i1 %13, label %14, label %17

14:                                               ; preds = %10
  %15 = getelementptr inbounds nuw i8, ptr %12, i64 72
  %16 = load ptr, ptr %15, align 8, !tbaa !98
  store ptr %16, ptr %11, align 8, !tbaa !97
  br label %17

17:                                               ; preds = %14, %10
  %18 = getelementptr inbounds nuw i8, ptr %9, i64 56
  %19 = load ptr, ptr %18, align 8, !tbaa !99
  %20 = icmp eq ptr %1, %19
  br i1 %20, label %21, label %24

21:                                               ; preds = %17
  %22 = getelementptr inbounds nuw i8, ptr %19, i64 64
  %23 = load ptr, ptr %22, align 8, !tbaa !100
  store ptr %23, ptr %18, align 8, !tbaa !99
  br label %24

24:                                               ; preds = %21, %17
  %25 = getelementptr inbounds nuw i8, ptr %1, i64 64
  %26 = load ptr, ptr %25, align 8, !tbaa !100
  %.not.i = icmp eq ptr %26, null
  %.phi.trans.insert.i = getelementptr inbounds nuw i8, ptr %1, i64 72
  %.pre.i = load ptr, ptr %.phi.trans.insert.i, align 8, !tbaa !98
  br i1 %.not.i, label %._crit_edge.i, label %27

27:                                               ; preds = %24
  %28 = getelementptr inbounds nuw i8, ptr %26, i64 72
  store ptr %.pre.i, ptr %28, align 8, !tbaa !98
  br label %._crit_edge.i

._crit_edge.i:                                    ; preds = %27, %24
  %.not13.i = icmp eq ptr %.pre.i, null
  br i1 %.not13.i, label %_ZN2cv8tinyxml27XMLNode6UnlinkEPS1_.exit, label %29

29:                                               ; preds = %._crit_edge.i
  %30 = getelementptr inbounds nuw i8, ptr %.pre.i, i64 64
  store ptr %26, ptr %30, align 8, !tbaa !100
  br label %_ZN2cv8tinyxml27XMLNode6UnlinkEPS1_.exit

31:                                               ; preds = %7
  %32 = getelementptr inbounds nuw i8, ptr %1, i64 80
  %33 = load ptr, ptr %32, align 8, !tbaa !41
  %34 = load ptr, ptr %33, align 8, !tbaa !39
  %35 = getelementptr inbounds nuw i8, ptr %34, i64 40
  %36 = load ptr, ptr %35, align 8
  tail call void %36(ptr noundef nonnull align 8 dereferenceable(8) %33)
  br label %_ZN2cv8tinyxml27XMLNode6UnlinkEPS1_.exit

_ZN2cv8tinyxml27XMLNode6UnlinkEPS1_.exit:         ; preds = %29, %._crit_edge.i, %31
  %37 = getelementptr inbounds nuw i8, ptr %0, i64 56
  %38 = load ptr, ptr %37, align 8, !tbaa !99
  %.not19 = icmp eq ptr %38, null
  br i1 %.not19, label %41, label %39

39:                                               ; preds = %_ZN2cv8tinyxml27XMLNode6UnlinkEPS1_.exit
  %40 = getelementptr inbounds nuw i8, ptr %38, i64 72
  store ptr %1, ptr %40, align 8, !tbaa !98
  br label %43

41:                                               ; preds = %_ZN2cv8tinyxml27XMLNode6UnlinkEPS1_.exit
  %42 = getelementptr inbounds nuw i8, ptr %0, i64 48
  store ptr %1, ptr %42, align 8, !tbaa !97
  br label %43

43:                                               ; preds = %41, %39
  store ptr %1, ptr %37, align 8, !tbaa !99
  %44 = getelementptr inbounds nuw i8, ptr %1, i64 64
  store ptr %38, ptr %44, align 8, !tbaa !100
  %45 = getelementptr inbounds nuw i8, ptr %1, i64 72
  store ptr null, ptr %45, align 8, !tbaa !98
  store ptr %0, ptr %8, align 8, !tbaa !38
  br label %46

46:                                               ; preds = %2, %43
  %.0 = phi ptr [ %1, %43 ], [ null, %2 ]
  ret ptr %.0
}